; Function Attrs: nounwind uwtable
define hidden void @_glfwInputCursorPos(ptr noundef %0, double noundef %1, double noundef %2) local_unnamed_addr #0 {
  %4 = getelementptr inbounds nuw i8, ptr %0, i64 504
  %5 = load double, ptr %4, align 8, !tbaa !58
  %6 = fcmp oeq double %5, %1
  br i1 %6, label %7, label %11

7:                                                ; preds = %3
  %8 = getelementptr inbounds nuw i8, ptr %0, i64 512
  %9 = load double, ptr %8, align 8, !tbaa !59
  %10 = fcmp oeq double %9, %2
  br i1 %10, label %16, label %11

11:                                               ; preds = %7, %3
  store double %1, ptr %4, align 8, !tbaa !58
  %12 = getelementptr inbounds nuw i8, ptr %0, i64 512
  store double %2, ptr %12, align 8, !tbaa !59
  %13 = getelementptr inbounds nuw i8, ptr %0, i64 800
  %14 = load ptr, ptr %13, align 8, !tbaa !60
  %.not = icmp eq ptr %14, null
  br i1 %.not, label %16, label %15

15:                                               ; preds = %11
  tail call void %14(ptr noundef nonnull %0, double noundef %1, double noundef %2) #12
  br label %16

16:                                               ; preds = %7, %15, %11
  ret void
}